target datalayout = "e-m:e-p270:32:32-p271:32:32-p272:64:64-i64:64-i128:128-f80:128-n8:16:32:64-S128"
target triple = "x86_64-pc-linux-gnu"

%struct.AVFormatContext = type { ptr, ptr, ptr, ptr, ptr, i32, i32, ptr, i32, ptr, i32, ptr, ptr, i64, i64, i64, i32, i32, i32, i64, i64, ptr, i32, i32, ptr, i32, i32, i32, i32, ptr, i64, i32, i32, %struct.AVIOInterruptCB, i32, i32, i32, i32, i64, i32, i32, i32, i32, i32, i32, i32, i32, i32, i32, i32, i32, i64, i32, i32, i32, i32, i32, ptr, ptr, ptr, ptr, i32, ptr, ptr, ptr, ptr, i32, ptr, ptr, i64, ptr, ptr, ptr, i64 }
%struct.AVIOInterruptCB = type { ptr, ptr }
%struct.HLSContext = type { ptr, i64, i32, i64, i64, i32, i32, i32, i32, ptr, ptr, i32, i32, i32, i32, i32, i64, i64, ptr, ptr, ptr, ptr, i32, ptr, ptr, ptr, ptr, i32, ptr, [4097 x i8], [4097 x i8], [33 x i8], [33 x i8], ptr, ptr, ptr, ptr, i32, ptr, i32, i32, ptr, i32, ptr, ptr, ptr, i32, i32, ptr, ptr, ptr, i64, i32, ptr, i32, i32 }

@.str.95 = private unnamed_addr constant [7 x i8] c"method\00", align 1
@.str.120 = private unnamed_addr constant [8 x i8] c"timeout\00", align 1
@.str.124 = private unnamed_addr constant [8 x i8] c"headers\00", align 1
@.str.158 = private unnamed_addr constant [4 x i8] c"PUT\00", align 1
@.str.159 = private unnamed_addr constant [11 x i8] c"user_agent\00", align 1
@.str.160 = private unnamed_addr constant [18 x i8] c"multiple_requests\00", align 1

; Function Attrs: nounwind uwtable
define internal void @set_http_options(ptr noundef %0, ptr noundef %1, ptr noundef %2) #0 {
  %4 = alloca ptr, align 8
  %5 = alloca ptr, align 8
  %6 = alloca ptr, align 8
  %7 = alloca i32, align 4
  store ptr %0, ptr %4, align 8, !tbaa !4
  store ptr %1, ptr %5, align 8, !tbaa !169
  store ptr %2, ptr %6, align 8, !tbaa !26
  call void @llvm.lifetime.start.p0(i64 4, ptr %7) #15
  %8 = load ptr, ptr %4, align 8, !tbaa !4
  %9 = getelementptr inbounds nuw %struct.AVFormatContext, ptr %8, i32 0, i32 12
  %10 = load ptr, ptr %9, align 8, !tbaa !106
  %11 = call i32 @ff_is_http_proto(ptr noundef %10)
  store i32 %11, ptr %7, align 4, !tbaa !30
  %12 = load ptr, ptr %6, align 8, !tbaa !26
  %13 = getelementptr inbounds nuw %struct.HLSContext, ptr %12, i32 0, i32 34
  %14 = load ptr, ptr %13, align 8, !tbaa !127
  %15 = icmp ne ptr %14, null
  br i1 %15, label %16, label %22

16:                                               ; preds = %3
  %17 = load ptr, ptr %5, align 8, !tbaa !169
  %18 = load ptr, ptr %6, align 8, !tbaa !26
  %19 = getelementptr inbounds nuw %struct.HLSContext, ptr %18, i32 0, i32 34
  %20 = load ptr, ptr %19, align 8, !tbaa !127
  %21 = call i32 @av_dict_set(ptr noundef %17, ptr noundef @.str.95, ptr noundef %20, i32 noundef 0)
  br label %29

22:                                               ; preds = %3
  %23 = load i32, ptr %7, align 4, !tbaa !30
  %24 = icmp ne i32 %23, 0
  br i1 %24, label %25, label %28

25:                                               ; preds = %22
  %26 = load ptr, ptr %5, align 8, !tbaa !169
  %27 = call i32 @av_dict_set(ptr noundef %26, ptr noundef @.str.95, ptr noundef @.str.158, i32 noundef 0)
  br label %28

28:                                               ; preds = %25, %22
  br label %29

29:                                               ; preds = %28, %16
  %30 = load ptr, ptr %6, align 8, !tbaa !26
  %31 = getelementptr inbounds nuw %struct.HLSContext, ptr %30, i32 0, i32 35
  %32 = load ptr, ptr %31, align 8, !tbaa !171
  %33 = icmp ne ptr %32, null
  br i1 %33, label %34, label %40

34:                                               ; preds = %29
  %35 = load ptr, ptr %5, align 8, !tbaa !169
  %36 = load ptr, ptr %6, align 8, !tbaa !26
  %37 = getelementptr inbounds nuw %struct.HLSContext, ptr %36, i32 0, i32 35
  %38 = load ptr, ptr %37, align 8, !tbaa !171
  %39 = call i32 @av_dict_set(ptr noundef %35, ptr noundef @.str.159, ptr noundef %38, i32 noundef 0)
  br label %40

40:                                               ; preds = %34, %29
  %41 = load ptr, ptr %6, align 8, !tbaa !26
  %42 = getelementptr inbounds nuw %struct.HLSContext, ptr %41, i32 0, i32 47
  %43 = load i32, ptr %42, align 4, !tbaa !159
  %44 = icmp ne i32 %43, 0
  br i1 %44, label %45, label %48

45:                                               ; preds = %40
  %46 = load ptr, ptr %5, align 8, !tbaa !169
  %47 = call i32 @av_dict_set_int(ptr noundef %46, ptr noundef @.str.160, i64 noundef 1, i32 noundef 0)
  br label %48

48:                                               ; preds = %45, %40
  %49 = load ptr, ptr %6, align 8, !tbaa !26
  %50 = getelementptr inbounds nuw %struct.HLSContext, ptr %49, i32 0, i32 51
  %51 = load i64, ptr %50, align 8, !tbaa !172
  %52 = icmp sge i64 %51, 0
  br i1 %52, label %53, label %59

53:                                               ; preds = %48
  %54 = load ptr, ptr %5, align 8, !tbaa !169
  %55 = load ptr, ptr %6, align 8, !tbaa !26
  %56 = getelementptr inbounds nuw %struct.HLSContext, ptr %55, i32 0, i32 51
  %57 = load i64, ptr %56, align 8, !tbaa !172
  %58 = call i32 @av_dict_set_int(ptr noundef %54, ptr noundef @.str.120, i64 noundef %57, i32 noundef 0)
  br label %59

59:                                               ; preds = %53, %48
  %60 = load ptr, ptr %6, align 8, !tbaa !26
  %61 = getelementptr inbounds nuw %struct.HLSContext, ptr %60, i32 0, i32 53
  %62 = load ptr, ptr %61, align 8, !tbaa !173
  %63 = icmp ne ptr %62, null
  br i1 %63, label %64, label %70

64:                                               ; preds = %59
  %65 = load ptr, ptr %5, align 8, !tbaa !169
  %66 = load ptr, ptr %6, align 8, !tbaa !26
  %67 = getelementptr inbounds nuw %struct.HLSContext, ptr %66, i32 0, i32 53
  %68 = load ptr, ptr %67, align 8, !tbaa !173
  %69 = call i32 @av_dict_set(ptr noundef %65, ptr noundef @.str.124, ptr noundef %68, i32 noundef 0)
  br label %70

70:                                               ; preds = %64, %59
  call void @llvm.lifetime.end.p0(i64 4, ptr %7) #15
  ret void
}