; Function Attrs: nounwind uwtable
define internal fastcc void @set_http_options(ptr %.88.val, ptr noundef nonnull %0, ptr noundef readonly captures(none) %1) unnamed_addr #0 {
  %3 = tail call i32 @ff_is_http_proto(ptr noundef %.88.val) #17
  %4 = getelementptr inbounds nuw i8, ptr %1, i64 8472
  %5 = load ptr, ptr %4, align 8, !tbaa !146
  %.not = icmp eq ptr %5, null
  br i1 %.not, label %6, label %.sink.split

6:                                                ; preds = %2
  %.not19 = icmp eq i32 %3, 0
  br i1 %.not19, label %8, label %.sink.split

.sink.split:                                      ; preds = %6, %2
  %.str.158.sink = phi ptr [ %5, %2 ], [ @.str.158, %6 ]
  %7 = tail call i32 @av_dict_set(ptr noundef nonnull %0, ptr noundef nonnull @.str.95, ptr noundef nonnull %.str.158.sink, i32 noundef 0) #17
  br label %8

8:                                                ; preds = %.sink.split, %6
  %9 = getelementptr inbounds nuw i8, ptr %1, i64 8480
  %10 = load ptr, ptr %9, align 8, !tbaa !208
  %.not20 = icmp eq ptr %10, null
  br i1 %.not20, label %13, label %11

11:                                               ; preds = %8
  %12 = tail call i32 @av_dict_set(ptr noundef nonnull %0, ptr noundef nonnull @.str.159, ptr noundef nonnull %10, i32 noundef 0) #17
  br label %13

13:                                               ; preds = %11, %8
  %14 = getelementptr inbounds nuw i8, ptr %1, i64 8564
  %15 = load i32, ptr %14, align 4, !tbaa !174
  %.not21 = icmp eq i32 %15, 0
  br i1 %.not21, label %18, label %16

16:                                               ; preds = %13
  %17 = tail call i32 @av_dict_set_int(ptr noundef nonnull %0, ptr noundef nonnull @.str.160, i64 noundef 1, i32 noundef 0) #17
  br label %18

18:                                               ; preds = %16, %13
  %19 = getelementptr inbounds nuw i8, ptr %1, i64 8592
  %20 = load i64, ptr %19, align 8, !tbaa !209
  %21 = icmp sgt i64 %20, -1
  br i1 %21, label %22, label %24

22:                                               ; preds = %18
  %23 = tail call i32 @av_dict_set_int(ptr noundef nonnull %0, ptr noundef nonnull @.str.120, i64 noundef %20, i32 noundef 0) #17
  br label %24

24:                                               ; preds = %22, %18
  %25 = getelementptr inbounds nuw i8, ptr %1, i64 8608
  %26 = load ptr, ptr %25, align 8, !tbaa !210
  %.not22 = icmp eq ptr %26, null
  br i1 %.not22, label %29, label %27

27:                                               ; preds = %24
  %28 = tail call i32 @av_dict_set(ptr noundef nonnull %0, ptr noundef nonnull @.str.124, ptr noundef nonnull %26, i32 noundef 0) #17
  br label %29

29:                                               ; preds = %27, %24
  ret void
}